target datalayout = "e-m:e-p270:32:32-p271:32:32-p272:64:64-i64:64-i128:128-f80:128-n8:16:32:64-S128"
target triple = "x86_64-pc-linux-gnu"

%struct.nameData = type { [64 x i8] }
%struct.HeapTupleData = type { i32, %struct.ItemPointerData, i32, ptr }
%struct.ItemPointerData = type { %struct.BlockIdData, i16 }
%struct.BlockIdData = type { i16, i16 }
%struct.HeapTupleHeaderData = type { %union.anon, %struct.ItemPointerData, i16, i16, i8, [0 x i8] }
%union.anon = type { %struct.HeapTupleFields }
%struct.HeapTupleFields = type { i32, i32, %union.anon.0 }
%union.anon.0 = type { i32 }
%struct.Publication = type { i32, ptr, i8, i8, i32, %struct.PublicationActions }
%struct.PublicationActions = type { i8, i8, i8, i8 }
%struct.FormData_pg_publication = type { i32, %struct.nameData, i32, i8, i8, i8, i8, i8, i8, i8 }

@.str.1 = private unnamed_addr constant [17 x i8] c"pg_publication.c\00", align 1
@.str.7 = private unnamed_addr constant [39 x i8] c"cache lookup failed for publication %u\00", align 1
@__func__.GetPublication = private unnamed_addr constant [15 x i8] c"GetPublication\00", align 1

; Function Attrs: inlinehint nounwind uwtable
define internal ptr @GETSTRUCT(ptr noundef %0) #2 {
  %2 = alloca ptr, align 8
  store ptr %0, ptr %2, align 8
  %3 = load ptr, ptr %2, align 8
  %4 = getelementptr inbounds nuw %struct.HeapTupleData, ptr %3, i32 0, i32 3
  %5 = load ptr, ptr %4, align 8
  %6 = load ptr, ptr %2, align 8
  %7 = getelementptr inbounds nuw %struct.HeapTupleData, ptr %6, i32 0, i32 3
  %8 = load ptr, ptr %7, align 8
  %9 = getelementptr inbounds nuw %struct.HeapTupleHeaderData, ptr %8, i32 0, i32 4
  %10 = load i8, ptr %9, align 2
  %11 = zext i8 %10 to i32
  %12 = sext i32 %11 to i64
  %13 = getelementptr inbounds i8, ptr %5, i64 %12
  ret ptr %13
}

; Function Attrs: inlinehint nounwind uwtable
define internal i64 @ObjectIdGetDatum(i32 noundef %0) #2 {
  %2 = alloca i32, align 4
  store i32 %0, ptr %2, align 4
  %3 = load i32, ptr %2, align 4
  %4 = zext i32 %3 to i64
  ret i64 %4
}

; Function Attrs: nounwind uwtable
define dso_local ptr @GetPublication(i32 noundef %0) #0 {
  %2 = alloca i32, align 4
  %3 = alloca ptr, align 8
  %4 = alloca ptr, align 8
  %5 = alloca ptr, align 8
  store i32 %0, ptr %2, align 4
  call void @llvm.lifetime.start.p0(i64 8, ptr %3) #7
  call void @llvm.lifetime.start.p0(i64 8, ptr %4) #7
  call void @llvm.lifetime.start.p0(i64 8, ptr %5) #7
  %6 = load i32, ptr %2, align 4
  %7 = call i64 @ObjectIdGetDatum(i32 noundef %6)
  %8 = call ptr @SearchSysCache1(i32 noundef 51, i64 noundef %7)
  store ptr %8, ptr %3, align 8
  %9 = load ptr, ptr %3, align 8
  %10 = icmp ne ptr %9, null
  br i1 %10, label %23, label %11

11:                                               ; preds = %1
  br label %12

12:                                               ; preds = %11
  br i1 true, label %13, label %15

13:                                               ; preds = %12
  %14 = call zeroext i1 @errstart_cold(i32 noundef 21, ptr noundef null) #8
  br i1 %14, label %17, label %20

15:                                               ; preds = %12
  %16 = call zeroext i1 @errstart(i32 noundef 21, ptr noundef null)
  br i1 %16, label %17, label %20

17:                                               ; preds = %15, %13
  %18 = load i32, ptr %2, align 4
  %19 = call i32 (ptr, ...) @errmsg_internal(ptr noundef @.str.7, i32 noundef %18)
  call void @errfinish(ptr noundef @.str.1, i32 noundef 1078, ptr noundef @__func__.GetPublication)
  br label %20

20:                                               ; preds = %17, %15, %13
  unreachable

21:                                               ; No predecessors!
  br label %22

22:                                               ; preds = %21
  br label %23

23:                                               ; preds = %22, %1
  %24 = load ptr, ptr %3, align 8
  %25 = call ptr @GETSTRUCT(ptr noundef %24)
  store ptr %25, ptr %5, align 8
  %26 = call ptr @palloc(i64 noundef 32)
  store ptr %26, ptr %4, align 8
  %27 = load i32, ptr %2, align 4
  %28 = load ptr, ptr %4, align 8
  %29 = getelementptr inbounds nuw %struct.Publication, ptr %28, i32 0, i32 0
  store i32 %27, ptr %29, align 8
  %30 = load ptr, ptr %5, align 8
  %31 = getelementptr inbounds nuw %struct.FormData_pg_publication, ptr %30, i32 0, i32 1
  %32 = getelementptr inbounds nuw %struct.nameData, ptr %31, i32 0, i32 0
  %33 = getelementptr inbounds [64 x i8], ptr %32, i64 0, i64 0
  %34 = call ptr @pstrdup(ptr noundef %33)
  %35 = load ptr, ptr %4, align 8
  %36 = getelementptr inbounds nuw %struct.Publication, ptr %35, i32 0, i32 1
  store ptr %34, ptr %36, align 8
  %37 = load ptr, ptr %5, align 8
  %38 = getelementptr inbounds nuw %struct.FormData_pg_publication, ptr %37, i32 0, i32 3
  %39 = load i8, ptr %38, align 4, !range !4, !noundef !5
  %40 = trunc i8 %39 to i1
  %41 = load ptr, ptr %4, align 8
  %42 = getelementptr inbounds nuw %struct.Publication, ptr %41, i32 0, i32 2
  %43 = zext i1 %40 to i8
  store i8 %43, ptr %42, align 8
  %44 = load ptr, ptr %5, align 8
  %45 = getelementptr inbounds nuw %struct.FormData_pg_publication, ptr %44, i32 0, i32 4
  %46 = load i8, ptr %45, align 1, !range !4, !noundef !5
  %47 = trunc i8 %46 to i1
  %48 = load ptr, ptr %4, align 8
  %49 = getelementptr inbounds nuw %struct.Publication, ptr %48, i32 0, i32 5
  %50 = getelementptr inbounds nuw %struct.PublicationActions, ptr %49, i32 0, i32 0
  %51 = zext i1 %47 to i8
  store i8 %51, ptr %50, align 8
  %52 = load ptr, ptr %5, align 8
  %53 = getelementptr inbounds nuw %struct.FormData_pg_publication, ptr %52, i32 0, i32 5
  %54 = load i8, ptr %53, align 2, !range !4, !noundef !5
  %55 = trunc i8 %54 to i1
  %56 = load ptr, ptr %4, align 8
  %57 = getelementptr inbounds nuw %struct.Publication, ptr %56, i32 0, i32 5
  %58 = getelementptr inbounds nuw %struct.PublicationActions, ptr %57, i32 0, i32 1
  %59 = zext i1 %55 to i8
  store i8 %59, ptr %58, align 1
  %60 = load ptr, ptr %5, align 8
  %61 = getelementptr inbounds nuw %struct.FormData_pg_publication, ptr %60, i32 0, i32 6
  %62 = load i8, ptr %61, align 1, !range !4, !noundef !5
  %63 = trunc i8 %62 to i1
  %64 = load ptr, ptr %4, align 8
  %65 = getelementptr inbounds nuw %struct.Publication, ptr %64, i32 0, i32 5
  %66 = getelementptr inbounds nuw %struct.PublicationActions, ptr %65, i32 0, i32 2
  %67 = zext i1 %63 to i8
  store i8 %67, ptr %66, align 2
  %68 = load ptr, ptr %5, align 8
  %69 = getelementptr inbounds nuw %struct.FormData_pg_publication, ptr %68, i32 0, i32 7
  %70 = load i8, ptr %69, align 4, !range !4, !noundef !5
  %71 = trunc i8 %70 to i1
  %72 = load ptr, ptr %4, align 8
  %73 = getelementptr inbounds nuw %struct.Publication, ptr %72, i32 0, i32 5
  %74 = getelementptr inbounds nuw %struct.PublicationActions, ptr %73, i32 0, i32 3
  %75 = zext i1 %71 to i8
  store i8 %75, ptr %74, align 1
  %76 = load ptr, ptr %5, align 8
  %77 = getelementptr inbounds nuw %struct.FormData_pg_publication, ptr %76, i32 0, i32 8
  %78 = load i8, ptr %77, align 1, !range !4, !noundef !5
  %79 = trunc i8 %78 to i1
  %80 = load ptr, ptr %4, align 8
  %81 = getelementptr inbounds nuw %struct.Publication, ptr %80, i32 0, i32 3
  %82 = zext i1 %79 to i8
  store i8 %82, ptr %81, align 1
  %83 = load ptr, ptr %5, align 8
  %84 = getelementptr inbounds nuw %struct.FormData_pg_publication, ptr %83, i32 0, i32 9
  %85 = load i8, ptr %84, align 2
  %86 = sext i8 %85 to i32
  %87 = load ptr, ptr %4, align 8
  %88 = getelementptr inbounds nuw %struct.Publication, ptr %87, i32 0, i32 4
  store i32 %86, ptr %88, align 4
  %89 = load ptr, ptr %3, align 8
  call void @ReleaseSysCache(ptr noundef %89)
  %90 = load ptr, ptr %4, align 8
  call void @llvm.lifetime.end.p0(i64 8, ptr %5) #7
  call void @llvm.lifetime.end.p0(i64 8, ptr %4) #7
  call void @llvm.lifetime.end.p0(i64 8, ptr %3) #7
  ret ptr %90
}