; Function Attrs: nounwind uwtable
define dso_local noundef ptr @GetPublication(i32 noundef %0) local_unnamed_addr #0 {
  %2 = zext i32 %0 to i64
  %3 = tail call ptr @SearchSysCache1(i32 noundef 51, i64 noundef %2) #6
  %.not = icmp eq ptr %3, null
  br i1 %.not, label %4, label %7

4:                                                ; preds = %1
  %5 = tail call zeroext i1 @errstart_cold(i32 noundef 21, ptr noundef null) #7
  tail call void @llvm.assume(i1 %5)
  %6 = tail call i32 (ptr, ...) @errmsg_internal(ptr noundef nonnull @.str.7, i32 noundef %0) #6
  tail call void @errfinish(ptr noundef nonnull @.str.1, i32 noundef 1078, ptr noundef nonnull @__func__.GetPublication) #6
  unreachable

7:                                                ; preds = %1
  %8 = getelementptr i8, ptr %3, i64 16
  %.val = load ptr, ptr %8, align 8
  %9 = getelementptr inbounds nuw i8, ptr %.val, i64 22
  %10 = load i8, ptr %9, align 2
  %11 = zext i8 %10 to i64
  %12 = getelementptr inbounds nuw i8, ptr %.val, i64 %11
  %13 = tail call ptr @palloc(i64 noundef 32) #6
  store i32 %0, ptr %13, align 8
  %14 = getelementptr inbounds nuw i8, ptr %12, i64 4
  %15 = tail call ptr @pstrdup(ptr noundef nonnull %14) #6
  %16 = getelementptr inbounds nuw i8, ptr %13, i64 8
  store ptr %15, ptr %16, align 8
  %17 = getelementptr inbounds nuw i8, ptr %12, i64 72
  %18 = load i8, ptr %17, align 4, !range !4, !noundef !5
  %19 = getelementptr inbounds nuw i8, ptr %13, i64 16
  store i8 %18, ptr %19, align 8
  %20 = getelementptr inbounds nuw i8, ptr %12, i64 73
  %21 = load i8, ptr %20, align 1, !range !4, !noundef !5
  %22 = getelementptr inbounds nuw i8, ptr %13, i64 24
  store i8 %21, ptr %22, align 8
  %23 = getelementptr inbounds nuw i8, ptr %12, i64 74
  %24 = load i8, ptr %23, align 2, !range !4, !noundef !5
  %25 = getelementptr inbounds nuw i8, ptr %13, i64 25
  store i8 %24, ptr %25, align 1
  %26 = getelementptr inbounds nuw i8, ptr %12, i64 75
  %27 = load i8, ptr %26, align 1, !range !4, !noundef !5
  %28 = getelementptr inbounds nuw i8, ptr %13, i64 26
  store i8 %27, ptr %28, align 2
  %29 = getelementptr inbounds nuw i8, ptr %12, i64 76
  %30 = load i8, ptr %29, align 4, !range !4, !noundef !5
  %31 = getelementptr inbounds nuw i8, ptr %13, i64 27
  store i8 %30, ptr %31, align 1
  %32 = getelementptr inbounds nuw i8, ptr %12, i64 77
  %33 = load i8, ptr %32, align 1, !range !4, !noundef !5
  %34 = getelementptr inbounds nuw i8, ptr %13, i64 17
  store i8 %33, ptr %34, align 1
  %35 = getelementptr inbounds nuw i8, ptr %12, i64 78
  %36 = load i8, ptr %35, align 2
  %37 = sext i8 %36 to i32
  %38 = getelementptr inbounds nuw i8, ptr %13, i64 20
  store i32 %37, ptr %38, align 4
  tail call void @ReleaseSysCache(ptr noundef nonnull %3) #6
  ret ptr %13
}